; Function Attrs: mustprogress nofree nounwind willreturn memory(write, argmem: none, inaccessiblemem: readwrite) uwtable
define noalias noundef ptr @Cbs_ManAlloc(ptr noundef %0) local_unnamed_addr #2 {
  %2 = tail call noalias dereferenceable_or_null(224) ptr @calloc(i64 noundef 1, i64 noundef 224) #22
  %3 = getelementptr inbounds nuw i8, ptr %2, i64 104
  %4 = getelementptr inbounds nuw i8, ptr %2, i64 112
  store i32 10000, ptr %4, align 8, !tbaa !22
  %5 = getelementptr inbounds nuw i8, ptr %2, i64 88
  store i32 10000, ptr %5, align 8, !tbaa !23
  %6 = getelementptr inbounds nuw i8, ptr %2, i64 64
  store i32 10000, ptr %6, align 8, !tbaa !24
  %7 = tail call noalias dereferenceable_or_null(80000) ptr @malloc(i64 noundef 80000) #23
  %8 = getelementptr inbounds nuw i8, ptr %2, i64 72
  store ptr %7, ptr %8, align 8, !tbaa !25
  %9 = tail call noalias dereferenceable_or_null(80000) ptr @malloc(i64 noundef 80000) #23
  %10 = getelementptr inbounds nuw i8, ptr %2, i64 96
  store ptr %9, ptr %10, align 8, !tbaa !26
  %11 = tail call noalias dereferenceable_or_null(80000) ptr @malloc(i64 noundef 80000) #23
  %12 = getelementptr inbounds nuw i8, ptr %2, i64 120
  store ptr %11, ptr %12, align 8, !tbaa !27
  %13 = getelementptr inbounds nuw i8, ptr %2, i64 108
  store i32 1, ptr %13, align 4, !tbaa !28
  store i32 1, ptr %3, align 8, !tbaa !29
  %14 = tail call noalias dereferenceable_or_null(16) ptr @malloc(i64 noundef 16) #23
  %15 = getelementptr inbounds nuw i8, ptr %14, i64 4
  store i32 0, ptr %15, align 4, !tbaa !30
  store i32 1000, ptr %14, align 8, !tbaa !33
  %16 = tail call noalias dereferenceable_or_null(4000) ptr @malloc(i64 noundef 4000) #23
  %17 = getelementptr inbounds nuw i8, ptr %14, i64 8
  store ptr %16, ptr %17, align 8, !tbaa !34
  %18 = getelementptr inbounds nuw i8, ptr %2, i64 144
  store ptr %14, ptr %18, align 8, !tbaa !35
  %19 = tail call noalias dereferenceable_or_null(16) ptr @malloc(i64 noundef 16) #23
  %20 = getelementptr inbounds nuw i8, ptr %19, i64 4
  store i32 0, ptr %20, align 4, !tbaa !30
  store i32 1000, ptr %19, align 8, !tbaa !33
  %21 = tail call noalias dereferenceable_or_null(4000) ptr @malloc(i64 noundef 4000) #23
  %22 = getelementptr inbounds nuw i8, ptr %19, i64 8
  store ptr %21, ptr %22, align 8, !tbaa !34
  %23 = getelementptr inbounds nuw i8, ptr %2, i64 136
  store ptr %19, ptr %23, align 8, !tbaa !36
  %24 = tail call noalias dereferenceable_or_null(16) ptr @malloc(i64 noundef 16) #23
  %25 = getelementptr inbounds nuw i8, ptr %24, i64 4
  store i32 0, ptr %25, align 4, !tbaa !37
  store i32 1000, ptr %24, align 8, !tbaa !39
  %26 = tail call noalias dereferenceable_or_null(8000) ptr @malloc(i64 noundef 8000) #23
  %27 = getelementptr inbounds nuw i8, ptr %24, i64 8
  store ptr %26, ptr %27, align 8, !tbaa !40
  %28 = getelementptr inbounds nuw i8, ptr %2, i64 152
  store ptr %24, ptr %28, align 8, !tbaa !41
  %29 = getelementptr inbounds nuw i8, ptr %2, i64 48
  store ptr %0, ptr %29, align 8, !tbaa !42
  store i32 1000, ptr %2, align 4, !tbaa !3
  %30 = getelementptr inbounds nuw i8, ptr %2, i64 4
  store i32 100, ptr %30, align 4, !tbaa !8
  %31 = getelementptr inbounds nuw i8, ptr %2, i64 28
  store i32 1, ptr %31, align 4, !tbaa !9
  %32 = getelementptr inbounds nuw i8, ptr %2, i64 40
  store i32 1, ptr %32, align 4, !tbaa !12
  ret ptr %2
}